target datalayout = "e-m:e-p270:32:32-p271:32:32-p272:64:64-i64:64-i128:128-f80:128-n8:16:32:64-S128"
target triple = "x86_64-pc-linux-gnu"

%struct.AVFilterContext = type { ptr, ptr, ptr, ptr, ptr, i32, ptr, ptr, i32, ptr, ptr, i32, i32, ptr, ptr, ptr, ptr, i32, ptr, i32, i32 }
%struct.FFDrawContext = type { ptr, i32, i32, [4 x i32], [4 x i8], [4 x i8], i8, i8, i32, i32, i32, [3 x [3 x double]] }
%struct.FFDrawColor = type { [4 x i8], [4 x %union.anon.2] }
%union.anon.2 = type { [4 x i32] }
%struct.AVFilterLink = type { ptr, ptr, ptr, ptr, i32, i32, i32, i32, %struct.AVRational, i32, i32, i32, %struct.AVChannelLayout, %struct.AVRational, ptr, i32, %struct.AVFilterFormatsConfig, %struct.AVFilterFormatsConfig }
%struct.AVChannelLayout = type { i32, i32, %union.anon.1, ptr }
%union.anon.1 = type { i64 }
%struct.AVRational = type { i32, i32 }
%struct.AVFilterFormatsConfig = type { ptr, ptr, ptr, ptr, ptr }
%struct.DatascopeContext = type { ptr, i32, i32, i32, i32, i32, i32, i32, i32, float, i32, i32, i32, %struct.FFDrawContext, %struct.FFDrawColor, %struct.FFDrawColor, %struct.FFDrawColor, %struct.FFDrawColor, ptr, ptr, ptr }

; Function Attrs: nounwind uwtable
define internal i32 @config_output(ptr noundef %0) #0 {
  %2 = alloca ptr, align 8
  %3 = alloca ptr, align 8
  %4 = alloca %struct.AVRational, align 4
  store ptr %0, ptr %2, align 8, !tbaa !26
  call void @llvm.lifetime.start.p0(i64 8, ptr %3) #11
  %5 = load ptr, ptr %2, align 8, !tbaa !26
  %6 = getelementptr inbounds nuw %struct.AVFilterLink, ptr %5, i32 0, i32 0
  %7 = load ptr, ptr %6, align 8, !tbaa !117
  %8 = getelementptr inbounds nuw %struct.AVFilterContext, ptr %7, i32 0, i32 9
  %9 = load ptr, ptr %8, align 8, !tbaa !28
  store ptr %9, ptr %3, align 8, !tbaa !41
  %10 = load ptr, ptr %3, align 8, !tbaa !41
  %11 = getelementptr inbounds nuw %struct.DatascopeContext, ptr %10, i32 0, i32 2
  %12 = load i32, ptr %11, align 4, !tbaa !118
  %13 = load ptr, ptr %2, align 8, !tbaa !26
  %14 = getelementptr inbounds nuw %struct.AVFilterLink, ptr %13, i32 0, i32 7
  store i32 %12, ptr %14, align 4, !tbaa !52
  %15 = load ptr, ptr %3, align 8, !tbaa !41
  %16 = getelementptr inbounds nuw %struct.DatascopeContext, ptr %15, i32 0, i32 1
  %17 = load i32, ptr %16, align 8, !tbaa !119
  %18 = load ptr, ptr %2, align 8, !tbaa !26
  %19 = getelementptr inbounds nuw %struct.AVFilterLink, ptr %18, i32 0, i32 6
  store i32 %17, ptr %19, align 8, !tbaa !51
  %20 = load ptr, ptr %2, align 8, !tbaa !26
  %21 = getelementptr inbounds nuw %struct.AVFilterLink, ptr %20, i32 0, i32 8
  %22 = getelementptr inbounds nuw %struct.AVRational, ptr %4, i32 0, i32 0
  store i32 1, ptr %22, align 4, !tbaa !120
  %23 = getelementptr inbounds nuw %struct.AVRational, ptr %4, i32 0, i32 1
  store i32 1, ptr %23, align 4, !tbaa !121
  call void @llvm.memcpy.p0.p0.i64(ptr align 8 %21, ptr align 4 %4, i64 8, i1 false), !tbaa.struct !122
  call void @llvm.lifetime.end.p0(i64 8, ptr %3) #11
  ret i32 0
}